; Function Attrs: nounwind uwtable
define internal ptr @siv_dupctx(ptr noundef %0) #0 {
  %2 = tail call i32 @ossl_prov_is_running() #4
  %.not = icmp eq i32 %2, 0
  br i1 %.not, label %13, label %3

3:                                                ; preds = %1
  %4 = tail call noalias ptr @CRYPTO_malloc(i64 noundef 120, ptr noundef nonnull @.str, i32 noundef 67) #4
  %5 = icmp eq ptr %4, null
  br i1 %5, label %13, label %6

6:                                                ; preds = %3
  %7 = getelementptr inbounds nuw i8, ptr %0, i64 104
  %8 = load ptr, ptr %7, align 8, !tbaa !19
  %9 = getelementptr inbounds nuw i8, ptr %8, i64 40
  %10 = load ptr, ptr %9, align 8, !tbaa !23
  %11 = tail call i32 %10(ptr noundef %0, ptr noundef nonnull %4) #4
  %.not10 = icmp eq i32 %11, 0
  br i1 %.not10, label %12, label %13

12:                                               ; preds = %6
  tail call void @CRYPTO_free(ptr noundef nonnull %4, ptr noundef nonnull @.str, i32 noundef 71) #4
  br label %13

13:                                               ; preds = %6, %12, %3, %1
  %.08 = phi ptr [ null, %1 ], [ null, %3 ], [ %4, %6 ], [ null, %12 ]
  ret ptr %.08
}